; Function Attrs: nofree norecurse nosync nounwind memory(read, inaccessiblemem: none) uwtable
define ptr @lv_rb_minimum(ptr noundef readonly captures(address_is_null) %0) local_unnamed_addr #1 {
  %.not = icmp eq ptr %0, null
  br i1 %.not, label %.preheader, label %2

.preheader:                                       ; preds = %1, %.preheader
  br label %.preheader

2:                                                ; preds = %1
  %3 = load ptr, ptr %0, align 8, !tbaa !3
  br label %4

4:                                                ; preds = %4, %2
  %.0.i = phi ptr [ %3, %2 ], [ %6, %4 ]
  %5 = getelementptr inbounds nuw i8, ptr %.0.i, i64 8
  %6 = load ptr, ptr %5, align 8, !tbaa !21
  %.not.i = icmp eq ptr %6, null
  br i1 %.not.i, label %lv_rb_minimum_from.exit, label %4, !llvm.loop !24

lv_rb_minimum_from.exit:                          ; preds = %4
  ret ptr %.0.i
}